target datalayout = "e-m:e-p270:32:32-p271:32:32-p272:64:64-i64:64-i128:128-f80:128-n8:16:32:64-S128"
target triple = "x86_64-pc-linux-gnu"

%"class.OpenSubdiv::v3_6_0::Sdc::Options" = type { i8, i8, i8, i8 }
%"class.OpenSubdiv::v3_6_0::Bfr::FaceTopology" = type { i32, %"class.OpenSubdiv::v3_6_0::Sdc::Options", i32, i32, i32, %"class.OpenSubdiv::v3_6_0::Bfr::MultiVertexTag", i8, %"class.OpenSubdiv::v3_6_0::Vtr::internal::StackBuffer" }
%"class.OpenSubdiv::v3_6_0::Bfr::MultiVertexTag" = type { %"class.OpenSubdiv::v3_6_0::Bfr::FeatureBits" }
%"class.OpenSubdiv::v3_6_0::Bfr::FeatureBits" = type { i16 }
%"class.OpenSubdiv::v3_6_0::Vtr::internal::StackBuffer" = type { ptr, i32, i32, [896 x i8], ptr }

; Function Attrs: mustprogress nounwind uwtable
define linkonce_odr void @_ZN10OpenSubdiv6v3_6_03Bfr11FeatureBitsD2Ev(ptr noundef nonnull align 2 dereferenceable(2) %0) unnamed_addr #3 comdat align 2 {
  %2 = alloca ptr, align 8
  store ptr %0, ptr %2, align 8
  ret void
}

; Function Attrs: mustprogress nounwind uwtable
define linkonce_odr void @_ZN10OpenSubdiv6v3_6_03Bfr11FeatureBitsC2Ev(ptr noundef nonnull align 2 dereferenceable(2) %0) unnamed_addr #3 comdat align 2 {
  %2 = alloca ptr, align 8
  store ptr %0, ptr %2, align 8
  ret void
}

; Function Attrs: mustprogress nounwind uwtable
define linkonce_odr void @_ZN10OpenSubdiv6v3_6_03Bfr14MultiVertexTagD2Ev(ptr noundef nonnull align 2 dereferenceable(2) %0) unnamed_addr #3 comdat align 2 {
  %2 = alloca ptr, align 8
  store ptr %0, ptr %2, align 8
  %3 = load ptr, ptr %2, align 8
  call void @_ZN10OpenSubdiv6v3_6_03Bfr11FeatureBitsD2Ev(ptr noundef nonnull align 2 dereferenceable(2) %3) #7
  ret void
}

; Function Attrs: mustprogress nounwind uwtable
define linkonce_odr void @_ZN10OpenSubdiv6v3_6_03Vtr8internal11StackBufferINS0_3Bfr10FaceVertexELj4ELb0EEC2Ev(ptr noundef nonnull align 8 dereferenceable(920) %0) unnamed_addr #3 comdat align 2 {
  %2 = alloca ptr, align 8
  store ptr %0, ptr %2, align 8
  %3 = load ptr, ptr %2, align 8
  %4 = getelementptr inbounds nuw %"class.OpenSubdiv::v3_6_0::Vtr::internal::StackBuffer", ptr %3, i32 0, i32 0
  %5 = getelementptr inbounds nuw %"class.OpenSubdiv::v3_6_0::Vtr::internal::StackBuffer", ptr %3, i32 0, i32 3
  %6 = getelementptr inbounds [896 x i8], ptr %5, i64 0, i64 0
  store ptr %6, ptr %4, align 8
  %7 = getelementptr inbounds nuw %"class.OpenSubdiv::v3_6_0::Vtr::internal::StackBuffer", ptr %3, i32 0, i32 1
  store i32 0, ptr %7, align 8
  %8 = getelementptr inbounds nuw %"class.OpenSubdiv::v3_6_0::Vtr::internal::StackBuffer", ptr %3, i32 0, i32 2
  store i32 4, ptr %8, align 4
  %9 = getelementptr inbounds nuw %"class.OpenSubdiv::v3_6_0::Vtr::internal::StackBuffer", ptr %3, i32 0, i32 4
  store ptr null, ptr %9, align 8
  ret void
}

; Function Attrs: mustprogress uwtable
define linkonce_odr void @_ZN10OpenSubdiv6v3_6_03Bfr14MultiVertexTagC2Ev(ptr noundef nonnull align 2 dereferenceable(2) %0) unnamed_addr #0 comdat align 2 {
  %2 = alloca ptr, align 8
  store ptr %0, ptr %2, align 8
  %3 = load ptr, ptr %2, align 8
  call void @_ZN10OpenSubdiv6v3_6_03Bfr11FeatureBitsC2Ev(ptr noundef nonnull align 2 dereferenceable(2) %3)
  ret void
}

; Function Attrs: mustprogress uwtable
define void @_ZN10OpenSubdiv6v3_6_03Bfr12FaceTopologyC2ENS0_3Sdc10SchemeTypeENS3_7OptionsE(ptr noundef nonnull align 8 dereferenceable(944) %0, i32 noundef %1, i32 %2) unnamed_addr #0 align 2 personality ptr @__gxx_personality_v0 {
  %4 = alloca %"class.OpenSubdiv::v3_6_0::Sdc::Options", align 1
  %5 = alloca ptr, align 8
  %6 = alloca i32, align 4
  %7 = alloca ptr, align 8
  %8 = alloca i32, align 4
  store i32 %2, ptr %4, align 1
  store ptr %0, ptr %5, align 8
  store i32 %1, ptr %6, align 4
  %9 = load ptr, ptr %5, align 8
  %10 = getelementptr inbounds nuw %"class.OpenSubdiv::v3_6_0::Bfr::FaceTopology", ptr %9, i32 0, i32 0
  %11 = load i32, ptr %6, align 4
  store i32 %11, ptr %10, align 8
  %12 = getelementptr inbounds nuw %"class.OpenSubdiv::v3_6_0::Bfr::FaceTopology", ptr %9, i32 0, i32 1
  call void @llvm.memcpy.p0.p0.i64(ptr align 4 %12, ptr align 1 %4, i64 4, i1 false)
  %13 = getelementptr inbounds nuw %"class.OpenSubdiv::v3_6_0::Bfr::FaceTopology", ptr %9, i32 0, i32 3
  %14 = load i32, ptr %6, align 4
  %15 = call noundef i32 @_ZN10OpenSubdiv6v3_6_03Sdc16SchemeTypeTraits18GetRegularFaceSizeENS1_10SchemeTypeE(i32 noundef %14)
  store i32 %15, ptr %13, align 4
  %16 = getelementptr inbounds nuw %"class.OpenSubdiv::v3_6_0::Bfr::FaceTopology", ptr %9, i32 0, i32 5
  call void @_ZN10OpenSubdiv6v3_6_03Bfr14MultiVertexTagC2Ev(ptr noundef nonnull align 2 dereferenceable(2) %16)
  %17 = getelementptr inbounds nuw %"class.OpenSubdiv::v3_6_0::Bfr::FaceTopology", ptr %9, i32 0, i32 6
  %18 = load i8, ptr %17, align 2
  %19 = and i8 %18, -2
  %20 = or i8 %19, 0
  store i8 %20, ptr %17, align 2
  %21 = getelementptr inbounds nuw %"class.OpenSubdiv::v3_6_0::Bfr::FaceTopology", ptr %9, i32 0, i32 7
  invoke void @_ZN10OpenSubdiv6v3_6_03Vtr8internal11StackBufferINS0_3Bfr10FaceVertexELj4ELb0EEC2Ev(ptr noundef nonnull align 8 dereferenceable(920) %21)
          to label %22 unwind label %23

22:                                               ; preds = %3
  ret void

23:                                               ; preds = %3
  %24 = landingpad { ptr, i32 }
          cleanup
  %25 = extractvalue { ptr, i32 } %24, 0
  store ptr %25, ptr %7, align 8
  %26 = extractvalue { ptr, i32 } %24, 1
  store i32 %26, ptr %8, align 4
  call void @_ZN10OpenSubdiv6v3_6_03Bfr14MultiVertexTagD2Ev(ptr noundef nonnull align 2 dereferenceable(2) %16) #7
  br label %27

27:                                               ; preds = %23
  %28 = load ptr, ptr %7, align 8
  %29 = load i32, ptr %8, align 4
  %30 = insertvalue { ptr, i32 } poison, ptr %28, 0
  %31 = insertvalue { ptr, i32 } %30, i32 %29, 1
  resume { ptr, i32 } %31
}