; Function Attrs: mustprogress uwtable
define void @_ZN10OpenSubdiv6v3_6_03Bfr12FaceTopologyC2ENS0_3Sdc10SchemeTypeENS3_7OptionsE(ptr noundef nonnull align 8 dereferenceable(944) initializes((0, 8), (12, 16)) %0, i32 noundef %1, i32 %2) unnamed_addr #0 align 2 personality ptr @__gxx_personality_v0 {
  store i32 %1, ptr %0, align 8
  %4 = getelementptr inbounds nuw i8, ptr %0, i64 4
  store i32 %2, ptr %4, align 4
  %5 = getelementptr inbounds nuw i8, ptr %0, i64 12
  %6 = tail call noundef i32 @_ZN10OpenSubdiv6v3_6_03Sdc16SchemeTypeTraits18GetRegularFaceSizeENS1_10SchemeTypeE(i32 noundef %1)
  store i32 %6, ptr %5, align 4
  %7 = getelementptr inbounds nuw i8, ptr %0, i64 22
  %8 = load i8, ptr %7, align 2
  %9 = and i8 %8, -2
  store i8 %9, ptr %7, align 2
  %10 = getelementptr inbounds nuw i8, ptr %0, i64 24
  %11 = getelementptr inbounds nuw i8, ptr %0, i64 40
  store ptr %11, ptr %10, align 8
  %12 = getelementptr inbounds nuw i8, ptr %0, i64 32
  store i32 0, ptr %12, align 8
  %13 = getelementptr inbounds nuw i8, ptr %0, i64 36
  store i32 4, ptr %13, align 4
  %14 = getelementptr inbounds nuw i8, ptr %0, i64 936
  store ptr null, ptr %14, align 8
  ret void
}